; Function Attrs: mustprogress nofree nounwind uwtable
define dso_local noundef zeroext i1 @_ZN6FileIO11openForReadEPKc(ptr nocapture noundef nonnull align 8 dereferenceable(20) %0, ptr nocapture noundef readonly %1) local_unnamed_addr #6 align 2 {
  %3 = getelementptr inbounds i8, ptr %0, i64 8
  %4 = load ptr, ptr %3, align 8
  %.not = icmp eq ptr %4, null
  br i1 %.not, label %5, label %9

5:                                                ; preds = %2
  %6 = tail call noalias ptr @fopen(ptr noundef %1, ptr noundef nonnull @.str.2)
  store ptr %6, ptr %3, align 8
  %.not3 = icmp eq ptr %6, null
  br i1 %.not3, label %9, label %7

7:                                                ; preds = %5
  %8 = getelementptr inbounds i8, ptr %0, i64 16
  store i32 2, ptr %8, align 8
  br label %9

9:                                                ; preds = %5, %2, %7
  %.0 = phi i1 [ true, %7 ], [ false, %2 ], [ false, %5 ]
  ret i1 %.0
}